
_interrupt:
	MOVWF      R15+0
	SWAPF      STATUS+0, 0
	CLRF       STATUS+0
	MOVWF      ___saveSTATUS+0
	MOVF       PCLATH+0, 0
	MOVWF      ___savePCLATH+0
	CLRF       PCLATH+0

;Bluetooth.c,27 :: 		void interrupt(void){
;Bluetooth.c,28 :: 		if(PIR1.RCIF){                                                             // Buffer de recepção cheio
	BTFSS      PIR1+0, 5
	GOTO       L_interrupt0
;Bluetooth.c,29 :: 		PIR1.RCIF=0;                                                            // Limpa a flag
	BCF        PIR1+0, 5
;Bluetooth.c,30 :: 		BUFFER[i]=uart1_read();                                                 // Lê o caracter recebido
	MOVF       _i+0, 0
	ADDLW      _BUFFER+0
	MOVWF      FLOC__interrupt+0
	CALL       _UART1_Read+0
	MOVF       FLOC__interrupt+0, 0
	MOVWF      FSR
	MOVF       R0+0, 0
	MOVWF      INDF+0
;Bluetooth.c,31 :: 		if (i>1){
	MOVF       _i+0, 0
	SUBLW      1
	BTFSC      STATUS+0, 0
	GOTO       L_interrupt1
;Bluetooth.c,32 :: 		if (BUFFER[i-1]==0x0A&&BUFFER[i]==0x0D){
	MOVLW      1
	SUBWF      _i+0, 0
	MOVWF      R0+0
	CLRF       R0+1
	BTFSS      STATUS+0, 0
	DECF       R0+1, 1
	MOVF       R0+0, 0
	ADDLW      _BUFFER+0
	MOVWF      FSR
	MOVF       INDF+0, 0
	XORLW      10
	BTFSS      STATUS+0, 2
	GOTO       L_interrupt4
	MOVF       _i+0, 0
	ADDLW      _BUFFER+0
	MOVWF      FSR
	MOVF       INDF+0, 0
	XORLW      13
	BTFSS      STATUS+0, 2
	GOTO       L_interrupt4
L__interrupt31:
;Bluetooth.c,33 :: 		BUFFER[i+1]='\0';                                                // Caracter null
	MOVF       _i+0, 0
	ADDLW      1
	MOVWF      R0+0
	CLRF       R0+1
	BTFSC      STATUS+0, 0
	INCF       R0+1, 1
	MOVF       R0+0, 0
	ADDLW      _BUFFER+0
	MOVWF      FSR
	CLRF       INDF+0
;Bluetooth.c,34 :: 		PIE1.RCIE=0;                                                     // Mensagem Recebida
	BCF        PIE1+0, 5
;Bluetooth.c,35 :: 		}
L_interrupt4:
;Bluetooth.c,36 :: 		}
L_interrupt1:
;Bluetooth.c,37 :: 		i++;
	INCF       _i+0, 1
;Bluetooth.c,38 :: 		}
L_interrupt0:
;Bluetooth.c,39 :: 		}
L_end_interrupt:
L__interrupt33:
	MOVF       ___savePCLATH+0, 0
	MOVWF      PCLATH+0
	SWAPF      ___saveSTATUS+0, 0
	MOVWF      STATUS+0
	SWAPF      R15+0, 1
	SWAPF      R15+0, 0
	RETFIE
; end of _interrupt

_Bluetooth_cmd:

;Bluetooth.c,42 :: 		void Bluetooth_cmd(const unsigned char*cmdPnt, const unsigned char*stopMsgPnt){ // Envia o comando cmd para o módulo bluetooth até ele transmitir a resposta esperada stopMsg, esta função compara somente os caracteres de stopMsg com os do BUFFER na mesma posição, assim, uma string recebida que comece com os caracteres de stopMsg mas que também possua ao final outros caracteres que não pertençam a msg também seria reconhecida resposta válida (intencionalmente)
;Bluetooth.c,43 :: 		unsigned char k=0;
	CLRF       Bluetooth_cmd_k_L0+0
;Bluetooth.c,45 :: 		while (*(cmdPnt+k)!='\0'){
L_Bluetooth_cmd5:
	MOVF       Bluetooth_cmd_k_L0+0, 0
	ADDWF      FARG_Bluetooth_cmd_cmdPnt+0, 0
	MOVWF      R0+0
	MOVF       FARG_Bluetooth_cmd_cmdPnt+1, 0
	BTFSC      STATUS+0, 0
	ADDLW      1
	MOVWF      R0+1
	MOVF       R0+0, 0
	MOVWF      ___DoICPAddr+0
	MOVF       R0+1, 0
	MOVWF      ___DoICPAddr+1
	CALL       _____DoICP+0
	MOVWF      R1+0
	MOVF       R1+0, 0
	XORLW      0
	BTFSC      STATUS+0, 2
	GOTO       L_Bluetooth_cmd6
;Bluetooth.c,46 :: 		cmd[k]=*(cmdPnt+k);
	MOVF       Bluetooth_cmd_k_L0+0, 0
	ADDLW      Bluetooth_cmd_cmd_L0+0
	MOVWF      R2+0
	MOVF       Bluetooth_cmd_k_L0+0, 0
	ADDWF      FARG_Bluetooth_cmd_cmdPnt+0, 0
	MOVWF      R0+0
	MOVF       FARG_Bluetooth_cmd_cmdPnt+1, 0
	BTFSC      STATUS+0, 0
	ADDLW      1
	MOVWF      R0+1
	MOVF       R0+0, 0
	MOVWF      ___DoICPAddr+0
	MOVF       R0+1, 0
	MOVWF      ___DoICPAddr+1
	CALL       _____DoICP+0
	MOVWF      R0+0
	MOVF       R2+0, 0
	MOVWF      FSR
	MOVF       R0+0, 0
	MOVWF      INDF+0
;Bluetooth.c,47 :: 		k++;
	INCF       Bluetooth_cmd_k_L0+0, 1
;Bluetooth.c,48 :: 		}
	GOTO       L_Bluetooth_cmd5
L_Bluetooth_cmd6:
;Bluetooth.c,49 :: 		cmd[k]='\0';
	MOVF       Bluetooth_cmd_k_L0+0, 0
	ADDLW      Bluetooth_cmd_cmd_L0+0
	MOVWF      FSR
	CLRF       INDF+0
;Bluetooth.c,50 :: 		k=0;
	CLRF       Bluetooth_cmd_k_L0+0
;Bluetooth.c,51 :: 		while (*(stopMsgPnt+k)!='\0'){
L_Bluetooth_cmd7:
	MOVF       Bluetooth_cmd_k_L0+0, 0
	ADDWF      FARG_Bluetooth_cmd_stopMsgPnt+0, 0
	MOVWF      R0+0
	MOVF       FARG_Bluetooth_cmd_stopMsgPnt+1, 0
	BTFSC      STATUS+0, 0
	ADDLW      1
	MOVWF      R0+1
	MOVF       R0+0, 0
	MOVWF      ___DoICPAddr+0
	MOVF       R0+1, 0
	MOVWF      ___DoICPAddr+1
	CALL       _____DoICP+0
	MOVWF      R1+0
	MOVF       R1+0, 0
	XORLW      0
	BTFSC      STATUS+0, 2
	GOTO       L_Bluetooth_cmd8
;Bluetooth.c,52 :: 		stopMsg[k]=*(stopMsgPnt+k);
	MOVF       Bluetooth_cmd_k_L0+0, 0
	ADDLW      Bluetooth_cmd_stopMsg_L0+0
	MOVWF      R2+0
	MOVF       Bluetooth_cmd_k_L0+0, 0
	ADDWF      FARG_Bluetooth_cmd_stopMsgPnt+0, 0
	MOVWF      R0+0
	MOVF       FARG_Bluetooth_cmd_stopMsgPnt+1, 0
	BTFSC      STATUS+0, 0
	ADDLW      1
	MOVWF      R0+1
	MOVF       R0+0, 0
	MOVWF      ___DoICPAddr+0
	MOVF       R0+1, 0
	MOVWF      ___DoICPAddr+1
	CALL       _____DoICP+0
	MOVWF      R0+0
	MOVF       R2+0, 0
	MOVWF      FSR
	MOVF       R0+0, 0
	MOVWF      INDF+0
;Bluetooth.c,53 :: 		k++;
	INCF       Bluetooth_cmd_k_L0+0, 1
;Bluetooth.c,54 :: 		}
	GOTO       L_Bluetooth_cmd7
L_Bluetooth_cmd8:
;Bluetooth.c,55 :: 		stopMsg[k]='\0';
	MOVF       Bluetooth_cmd_k_L0+0, 0
	ADDLW      Bluetooth_cmd_stopMsg_L0+0
	MOVWF      FSR
	CLRF       INDF+0
;Bluetooth.c,56 :: 		do{
L_Bluetooth_cmd9:
;Bluetooth.c,57 :: 		WRONG_MSG=0;
	BCF        _flags+0, 0
;Bluetooth.c,58 :: 		for(k=0;k<20;k++) BUFFER[k]='\0';
	CLRF       Bluetooth_cmd_k_L0+0
L_Bluetooth_cmd12:
	MOVLW      20
	SUBWF      Bluetooth_cmd_k_L0+0, 0
	BTFSC      STATUS+0, 0
	GOTO       L_Bluetooth_cmd13
	MOVF       Bluetooth_cmd_k_L0+0, 0
	ADDLW      _BUFFER+0
	MOVWF      FSR
	CLRF       INDF+0
	INCF       Bluetooth_cmd_k_L0+0, 1
	GOTO       L_Bluetooth_cmd12
L_Bluetooth_cmd13:
;Bluetooth.c,59 :: 		i=0;
	CLRF       _i+0
;Bluetooth.c,60 :: 		PIE1.RCIE=1;
	BSF        PIE1+0, 5
;Bluetooth.c,61 :: 		Uart1_write_text(cmd);
	MOVLW      Bluetooth_cmd_cmd_L0+0
	MOVWF      FARG_UART1_Write_Text_uart_text+0
	CALL       _UART1_Write_Text+0
;Bluetooth.c,62 :: 		Uart1_write(0x0A);
	MOVLW      10
	MOVWF      FARG_UART1_Write_data_+0
	CALL       _UART1_Write+0
;Bluetooth.c,63 :: 		Delay_ms(200);
	MOVLW      6
	MOVWF      R11+0
	MOVLW      19
	MOVWF      R12+0
	MOVLW      173
	MOVWF      R13+0
L_Bluetooth_cmd15:
	DECFSZ     R13+0, 1
	GOTO       L_Bluetooth_cmd15
	DECFSZ     R12+0, 1
	GOTO       L_Bluetooth_cmd15
	DECFSZ     R11+0, 1
	GOTO       L_Bluetooth_cmd15
	NOP
	NOP
;Bluetooth.c,64 :: 		for(k=0;k<(strlen(stopMsg));k++){
	CLRF       Bluetooth_cmd_k_L0+0
L_Bluetooth_cmd16:
	MOVLW      Bluetooth_cmd_stopMsg_L0+0
	MOVWF      FARG_strlen_s+0
	CALL       _strlen+0
	MOVLW      128
	MOVWF      R2+0
	MOVLW      128
	XORWF      R0+1, 0
	SUBWF      R2+0, 0
	BTFSS      STATUS+0, 2
	GOTO       L__Bluetooth_cmd35
	MOVF       R0+0, 0
	SUBWF      Bluetooth_cmd_k_L0+0, 0
L__Bluetooth_cmd35:
	BTFSC      STATUS+0, 0
	GOTO       L_Bluetooth_cmd17
;Bluetooth.c,65 :: 		if (BUFFER[k]!=stopMsg[k]) WRONG_MSG=1;
	MOVF       Bluetooth_cmd_k_L0+0, 0
	ADDLW      _BUFFER+0
	MOVWF      FSR
	MOVF       INDF+0, 0
	MOVWF      R1+0
	MOVF       Bluetooth_cmd_k_L0+0, 0
	ADDLW      Bluetooth_cmd_stopMsg_L0+0
	MOVWF      FSR
	MOVF       R1+0, 0
	XORWF      INDF+0, 0
	BTFSC      STATUS+0, 2
	GOTO       L_Bluetooth_cmd19
	BSF        _flags+0, 0
L_Bluetooth_cmd19:
;Bluetooth.c,64 :: 		for(k=0;k<(strlen(stopMsg));k++){
	INCF       Bluetooth_cmd_k_L0+0, 1
;Bluetooth.c,66 :: 		}
	GOTO       L_Bluetooth_cmd16
L_Bluetooth_cmd17:
;Bluetooth.c,68 :: 		while(WRONG_MSG);
	BTFSC      _flags+0, 0
	GOTO       L_Bluetooth_cmd9
;Bluetooth.c,69 :: 		i=0;
	CLRF       _i+0
;Bluetooth.c,70 :: 		for(k=0;k<20;k++) BUFFER[k]='\0';
	CLRF       Bluetooth_cmd_k_L0+0
L_Bluetooth_cmd20:
	MOVLW      20
	SUBWF      Bluetooth_cmd_k_L0+0, 0
	BTFSC      STATUS+0, 0
	GOTO       L_Bluetooth_cmd21
	MOVF       Bluetooth_cmd_k_L0+0, 0
	ADDLW      _BUFFER+0
	MOVWF      FSR
	CLRF       INDF+0
	INCF       Bluetooth_cmd_k_L0+0, 1
	GOTO       L_Bluetooth_cmd20
L_Bluetooth_cmd21:
;Bluetooth.c,71 :: 		PIE1.RCIE=1;
	BSF        PIE1+0, 5
;Bluetooth.c,72 :: 		}
L_end_Bluetooth_cmd:
	RETURN
; end of _Bluetooth_cmd

_main:

;Bluetooth.c,76 :: 		void main() {
;Bluetooth.c,78 :: 		unsigned char j=0;
	CLRF       main_j_L0+0
	MOVLW      73
	MOVWF      main_txt_L0+0
	MOVLW      110
	MOVWF      main_txt_L0+1
	MOVLW      105
	MOVWF      main_txt_L0+2
	MOVLW      116
	MOVWF      main_txt_L0+3
	MOVLW      105
	MOVWF      main_txt_L0+4
	MOVLW      97
	MOVWF      main_txt_L0+5
	MOVLW      108
	MOVWF      main_txt_L0+6
	MOVLW      105
	MOVWF      main_txt_L0+7
	MOVLW      122
	MOVWF      main_txt_L0+8
	MOVLW      105
	MOVWF      main_txt_L0+9
	MOVLW      110
	MOVWF      main_txt_L0+10
	MOVLW      103
	MOVWF      main_txt_L0+11
	MOVLW      32
	MOVWF      main_txt_L0+12
	MOVLW      49
	MOVWF      main_txt_L0+13
	MOVLW      49
	MOVWF      main_txt_L0+14
	CLRF       main_txt_L0+15
;Bluetooth.c,81 :: 		ADCON1=0x07;                                                                // Todas as portas são digitais
	MOVLW      7
	MOVWF      ADCON1+0
;Bluetooth.c,82 :: 		INTCON=0xC0;                                                                // Interrupções gerais e interrupções do periféricos habilitadas
	MOVLW      192
	MOVWF      INTCON+0
;Bluetooth.c,83 :: 		PIE1=0x20;                                                                  // Interrupção pela recepção serial UART habilitada
	MOVLW      32
	MOVWF      PIE1+0
;Bluetooth.c,84 :: 		Uart1_Init(9600);                                                           // Inicializa a UART
	MOVLW      129
	MOVWF      SPBRG+0
	BSF        TXSTA+0, 2
	CALL       _UART1_Init+0
;Bluetooth.c,85 :: 		Lcd_Init();                                                                 // Inicializa o display LCD
	CALL       _Lcd_Init+0
;Bluetooth.c,86 :: 		Lcd_cmd(_LCD_CLEAR);                                                        // Limpa o LCD
	MOVLW      1
	MOVWF      FARG_Lcd_Cmd_out_char+0
	CALL       _Lcd_Cmd+0
;Bluetooth.c,87 :: 		Lcd_cmd(_LCD_CURSOR_OFF);                                                   // Desliga o cursor do LCD
	MOVLW      12
	MOVWF      FARG_Lcd_Cmd_out_char+0
	CALL       _Lcd_Cmd+0
;Bluetooth.c,90 :: 		Lcd_Out(1,1,txt);                                                           // Contagem regressiva que mostra o andamento das configurações
	MOVLW      1
	MOVWF      FARG_Lcd_Out_row+0
	MOVLW      1
	MOVWF      FARG_Lcd_Out_column+0
	MOVLW      main_txt_L0+0
	MOVWF      FARG_Lcd_Out_text+0
	CALL       _Lcd_Out+0
;Bluetooth.c,91 :: 		delay_ms(100);
	MOVLW      3
	MOVWF      R11+0
	MOVLW      138
	MOVWF      R12+0
	MOVLW      85
	MOVWF      R13+0
L_main23:
	DECFSZ     R13+0, 1
	GOTO       L_main23
	DECFSZ     R12+0, 1
	GOTO       L_main23
	DECFSZ     R11+0, 1
	GOTO       L_main23
	NOP
	NOP
;Bluetooth.c,92 :: 		Bluetooth_cmd("AT+RESET","OK+RESET");                                       // Reseta o módulo
	MOVLW      ?lstr_1_Bluetooth+0
	MOVWF      FARG_Bluetooth_cmd_cmdPnt+0
	MOVLW      hi_addr(?lstr_1_Bluetooth+0)
	MOVWF      FARG_Bluetooth_cmd_cmdPnt+1
	MOVLW      ?lstr_2_Bluetooth+0
	MOVWF      FARG_Bluetooth_cmd_stopMsgPnt+0
	MOVLW      hi_addr(?lstr_2_Bluetooth+0)
	MOVWF      FARG_Bluetooth_cmd_stopMsgPnt+1
	CALL       _Bluetooth_cmd+0
;Bluetooth.c,93 :: 		txt[14]='0';
	MOVLW      48
	MOVWF      main_txt_L0+14
;Bluetooth.c,94 :: 		Lcd_Out(1,1,txt);
	MOVLW      1
	MOVWF      FARG_Lcd_Out_row+0
	MOVLW      1
	MOVWF      FARG_Lcd_Out_column+0
	MOVLW      main_txt_L0+0
	MOVWF      FARG_Lcd_Out_text+0
	CALL       _Lcd_Out+0
;Bluetooth.c,95 :: 		Bluetooth_cmd("AT+BAUD2","OK+Set:2");                                       // Baud rate 9600
	MOVLW      ?lstr_3_Bluetooth+0
	MOVWF      FARG_Bluetooth_cmd_cmdPnt+0
	MOVLW      hi_addr(?lstr_3_Bluetooth+0)
	MOVWF      FARG_Bluetooth_cmd_cmdPnt+1
	MOVLW      ?lstr_4_Bluetooth+0
	MOVWF      FARG_Bluetooth_cmd_stopMsgPnt+0
	MOVLW      hi_addr(?lstr_4_Bluetooth+0)
	MOVWF      FARG_Bluetooth_cmd_stopMsgPnt+1
	CALL       _Bluetooth_cmd+0
;Bluetooth.c,96 :: 		txt[14]='9';
	MOVLW      57
	MOVWF      main_txt_L0+14
;Bluetooth.c,97 :: 		txt[13]=' ';
	MOVLW      32
	MOVWF      main_txt_L0+13
;Bluetooth.c,98 :: 		Lcd_Out(1,1,txt);
	MOVLW      1
	MOVWF      FARG_Lcd_Out_row+0
	MOVLW      1
	MOVWF      FARG_Lcd_Out_column+0
	MOVLW      main_txt_L0+0
	MOVWF      FARG_Lcd_Out_text+0
	CALL       _Lcd_Out+0
;Bluetooth.c,99 :: 		Bluetooth_cmd("AT+PARI0","OK+Set:0");                                       // Nenhum bit de paridade
	MOVLW      ?lstr_5_Bluetooth+0
	MOVWF      FARG_Bluetooth_cmd_cmdPnt+0
	MOVLW      hi_addr(?lstr_5_Bluetooth+0)
	MOVWF      FARG_Bluetooth_cmd_cmdPnt+1
	MOVLW      ?lstr_6_Bluetooth+0
	MOVWF      FARG_Bluetooth_cmd_stopMsgPnt+0
	MOVLW      hi_addr(?lstr_6_Bluetooth+0)
	MOVWF      FARG_Bluetooth_cmd_stopMsgPnt+1
	CALL       _Bluetooth_cmd+0
;Bluetooth.c,100 :: 		txt[14]='8';
	MOVLW      56
	MOVWF      main_txt_L0+14
;Bluetooth.c,101 :: 		Lcd_Out(1,1,txt);
	MOVLW      1
	MOVWF      FARG_Lcd_Out_row+0
	MOVLW      1
	MOVWF      FARG_Lcd_Out_column+0
	MOVLW      main_txt_L0+0
	MOVWF      FARG_Lcd_Out_text+0
	CALL       _Lcd_Out+0
;Bluetooth.c,102 :: 		Bluetooth_cmd("AT+STOP0","OK+Set:0");                                       // Um stop Bit
	MOVLW      ?lstr_7_Bluetooth+0
	MOVWF      FARG_Bluetooth_cmd_cmdPnt+0
	MOVLW      hi_addr(?lstr_7_Bluetooth+0)
	MOVWF      FARG_Bluetooth_cmd_cmdPnt+1
	MOVLW      ?lstr_8_Bluetooth+0
	MOVWF      FARG_Bluetooth_cmd_stopMsgPnt+0
	MOVLW      hi_addr(?lstr_8_Bluetooth+0)
	MOVWF      FARG_Bluetooth_cmd_stopMsgPnt+1
	CALL       _Bluetooth_cmd+0
;Bluetooth.c,103 :: 		txt[14]='7';
	MOVLW      55
	MOVWF      main_txt_L0+14
;Bluetooth.c,104 :: 		Lcd_Out(1,1,txt);
	MOVLW      1
	MOVWF      FARG_Lcd_Out_row+0
	MOVLW      1
	MOVWF      FARG_Lcd_Out_column+0
	MOVLW      main_txt_L0+0
	MOVWF      FARG_Lcd_Out_text+0
	CALL       _Lcd_Out+0
;Bluetooth.c,105 :: 		Bluetooth_cmd("AT+DELI3","OK+Set:3");                                       // Delimitador de campo de resposta 0x0A 0x0D
	MOVLW      ?lstr_9_Bluetooth+0
	MOVWF      FARG_Bluetooth_cmd_cmdPnt+0
	MOVLW      hi_addr(?lstr_9_Bluetooth+0)
	MOVWF      FARG_Bluetooth_cmd_cmdPnt+1
	MOVLW      ?lstr_10_Bluetooth+0
	MOVWF      FARG_Bluetooth_cmd_stopMsgPnt+0
	MOVLW      hi_addr(?lstr_10_Bluetooth+0)
	MOVWF      FARG_Bluetooth_cmd_stopMsgPnt+1
	CALL       _Bluetooth_cmd+0
;Bluetooth.c,106 :: 		txt[14]='6';
	MOVLW      54
	MOVWF      main_txt_L0+14
;Bluetooth.c,107 :: 		Lcd_Out(1,1,txt);
	MOVLW      1
	MOVWF      FARG_Lcd_Out_row+0
	MOVLW      1
	MOVWF      FARG_Lcd_Out_column+0
	MOVLW      main_txt_L0+0
	MOVWF      FARG_Lcd_Out_text+0
	CALL       _Lcd_Out+0
;Bluetooth.c,108 :: 		Bluetooth_cmd("AT+NOTI1","OK+Set:1");                                       // Ativa notificação de conexão e desconexão via bluetooth
	MOVLW      ?lstr_11_Bluetooth+0
	MOVWF      FARG_Bluetooth_cmd_cmdPnt+0
	MOVLW      hi_addr(?lstr_11_Bluetooth+0)
	MOVWF      FARG_Bluetooth_cmd_cmdPnt+1
	MOVLW      ?lstr_12_Bluetooth+0
	MOVWF      FARG_Bluetooth_cmd_stopMsgPnt+0
	MOVLW      hi_addr(?lstr_12_Bluetooth+0)
	MOVWF      FARG_Bluetooth_cmd_stopMsgPnt+1
	CALL       _Bluetooth_cmd+0
;Bluetooth.c,109 :: 		txt[14]='5';
	MOVLW      53
	MOVWF      main_txt_L0+14
;Bluetooth.c,110 :: 		Lcd_Out(1,1,txt);
	MOVLW      1
	MOVWF      FARG_Lcd_Out_row+0
	MOVLW      1
	MOVWF      FARG_Lcd_Out_column+0
	MOVLW      main_txt_L0+0
	MOVWF      FARG_Lcd_Out_text+0
	CALL       _Lcd_Out+0
;Bluetooth.c,111 :: 		Bluetooth_cmd("AT+MODE1","OK+Set:1");                                       // Modo de aquisição
	MOVLW      ?lstr_13_Bluetooth+0
	MOVWF      FARG_Bluetooth_cmd_cmdPnt+0
	MOVLW      hi_addr(?lstr_13_Bluetooth+0)
	MOVWF      FARG_Bluetooth_cmd_cmdPnt+1
	MOVLW      ?lstr_14_Bluetooth+0
	MOVWF      FARG_Bluetooth_cmd_stopMsgPnt+0
	MOVLW      hi_addr(?lstr_14_Bluetooth+0)
	MOVWF      FARG_Bluetooth_cmd_stopMsgPnt+1
	CALL       _Bluetooth_cmd+0
;Bluetooth.c,112 :: 		txt[14]='4';
	MOVLW      52
	MOVWF      main_txt_L0+14
;Bluetooth.c,113 :: 		Lcd_Out(1,1,txt);
	MOVLW      1
	MOVWF      FARG_Lcd_Out_row+0
	MOVLW      1
	MOVWF      FARG_Lcd_Out_column+0
	MOVLW      main_txt_L0+0
	MOVWF      FARG_Lcd_Out_text+0
	CALL       _Lcd_Out+0
;Bluetooth.c,114 :: 		Bluetooth_cmd("AT+ROLE0","OK+Set:0");                                       // Modo slave
	MOVLW      ?lstr_15_Bluetooth+0
	MOVWF      FARG_Bluetooth_cmd_cmdPnt+0
	MOVLW      hi_addr(?lstr_15_Bluetooth+0)
	MOVWF      FARG_Bluetooth_cmd_cmdPnt+1
	MOVLW      ?lstr_16_Bluetooth+0
	MOVWF      FARG_Bluetooth_cmd_stopMsgPnt+0
	MOVLW      hi_addr(?lstr_16_Bluetooth+0)
	MOVWF      FARG_Bluetooth_cmd_stopMsgPnt+1
	CALL       _Bluetooth_cmd+0
;Bluetooth.c,115 :: 		txt[14]='3';
	MOVLW      51
	MOVWF      main_txt_L0+14
;Bluetooth.c,116 :: 		Lcd_Out(1,1,txt);
	MOVLW      1
	MOVWF      FARG_Lcd_Out_row+0
	MOVLW      1
	MOVWF      FARG_Lcd_Out_column+0
	MOVLW      main_txt_L0+0
	MOVWF      FARG_Lcd_Out_text+0
	CALL       _Lcd_Out+0
;Bluetooth.c,117 :: 		Bluetooth_cmd("AT+TYPE1","OK+Set:1");                                       // Ativa o pin
	MOVLW      ?lstr_17_Bluetooth+0
	MOVWF      FARG_Bluetooth_cmd_cmdPnt+0
	MOVLW      hi_addr(?lstr_17_Bluetooth+0)
	MOVWF      FARG_Bluetooth_cmd_cmdPnt+1
	MOVLW      ?lstr_18_Bluetooth+0
	MOVWF      FARG_Bluetooth_cmd_stopMsgPnt+0
	MOVLW      hi_addr(?lstr_18_Bluetooth+0)
	MOVWF      FARG_Bluetooth_cmd_stopMsgPnt+1
	CALL       _Bluetooth_cmd+0
;Bluetooth.c,118 :: 		txt[14]='2';
	MOVLW      50
	MOVWF      main_txt_L0+14
;Bluetooth.c,119 :: 		Lcd_Out(1,1,txt);
	MOVLW      1
	MOVWF      FARG_Lcd_Out_row+0
	MOVLW      1
	MOVWF      FARG_Lcd_Out_column+0
	MOVLW      main_txt_L0+0
	MOVWF      FARG_Lcd_Out_text+0
	CALL       _Lcd_Out+0
;Bluetooth.c,120 :: 		Bluetooth_cmd("AT+PIN184620","OK+Set:184620");                              // Define Pin para conectar ao módulo bluetooth
	MOVLW      ?lstr_19_Bluetooth+0
	MOVWF      FARG_Bluetooth_cmd_cmdPnt+0
	MOVLW      hi_addr(?lstr_19_Bluetooth+0)
	MOVWF      FARG_Bluetooth_cmd_cmdPnt+1
	MOVLW      ?lstr_20_Bluetooth+0
	MOVWF      FARG_Bluetooth_cmd_stopMsgPnt+0
	MOVLW      hi_addr(?lstr_20_Bluetooth+0)
	MOVWF      FARG_Bluetooth_cmd_stopMsgPnt+1
	CALL       _Bluetooth_cmd+0
;Bluetooth.c,121 :: 		txt[14]='1';
	MOVLW      49
	MOVWF      main_txt_L0+14
;Bluetooth.c,122 :: 		Lcd_Out(1,1,txt);
	MOVLW      1
	MOVWF      FARG_Lcd_Out_row+0
	MOVLW      1
	MOVWF      FARG_Lcd_Out_column+0
	MOVLW      main_txt_L0+0
	MOVWF      FARG_Lcd_Out_text+0
	CALL       _Lcd_Out+0
;Bluetooth.c,123 :: 		Bluetooth_cmd("AT+RESET","OK+RESET");                                       // Reseta o módulo
	MOVLW      ?lstr_21_Bluetooth+0
	MOVWF      FARG_Bluetooth_cmd_cmdPnt+0
	MOVLW      hi_addr(?lstr_21_Bluetooth+0)
	MOVWF      FARG_Bluetooth_cmd_cmdPnt+1
	MOVLW      ?lstr_22_Bluetooth+0
	MOVWF      FARG_Bluetooth_cmd_stopMsgPnt+0
	MOVLW      hi_addr(?lstr_22_Bluetooth+0)
	MOVWF      FARG_Bluetooth_cmd_stopMsgPnt+1
	CALL       _Bluetooth_cmd+0
;Bluetooth.c,126 :: 		Lcd_cmd(_LCD_CLEAR);
	MOVLW      1
	MOVWF      FARG_Lcd_Cmd_out_char+0
	CALL       _Lcd_Cmd+0
;Bluetooth.c,127 :: 		Lcd_Out(1,1,"Waiting for");
	MOVLW      1
	MOVWF      FARG_Lcd_Out_row+0
	MOVLW      1
	MOVWF      FARG_Lcd_Out_column+0
	MOVLW      ?lstr23_Bluetooth+0
	MOVWF      FARG_Lcd_Out_text+0
	CALL       _Lcd_Out+0
;Bluetooth.c,128 :: 		Lcd_Out(2,1,"Connection");
	MOVLW      2
	MOVWF      FARG_Lcd_Out_row+0
	MOVLW      1
	MOVWF      FARG_Lcd_Out_column+0
	MOVLW      ?lstr24_Bluetooth+0
	MOVWF      FARG_Lcd_Out_text+0
	CALL       _Lcd_Out+0
;Bluetooth.c,129 :: 		Bluetooth_cmd("","OK+CONN");
	MOVLW      ?lstr_25_Bluetooth+0
	MOVWF      FARG_Bluetooth_cmd_cmdPnt+0
	MOVLW      hi_addr(?lstr_25_Bluetooth+0)
	MOVWF      FARG_Bluetooth_cmd_cmdPnt+1
	MOVLW      ?lstr_26_Bluetooth+0
	MOVWF      FARG_Bluetooth_cmd_stopMsgPnt+0
	MOVLW      hi_addr(?lstr_26_Bluetooth+0)
	MOVWF      FARG_Bluetooth_cmd_stopMsgPnt+1
	CALL       _Bluetooth_cmd+0
;Bluetooth.c,130 :: 		Lcd_cmd(_LCD_CLEAR);
	MOVLW      1
	MOVWF      FARG_Lcd_Cmd_out_char+0
	CALL       _Lcd_Cmd+0
;Bluetooth.c,132 :: 		for(;;){
L_main24:
;Bluetooth.c,133 :: 		if(!PIE1.RCIE){                                                        // Se mensagem recebida
	BTFSC      PIE1+0, 5
	GOTO       L_main27
;Bluetooth.c,134 :: 		Lcd_cmd(_LCD_CLEAR);
	MOVLW      1
	MOVWF      FARG_Lcd_Cmd_out_char+0
	CALL       _Lcd_Cmd+0
;Bluetooth.c,135 :: 		Lcd_Out(1,1,"Mensagem:");
	MOVLW      1
	MOVWF      FARG_Lcd_Out_row+0
	MOVLW      1
	MOVWF      FARG_Lcd_Out_column+0
	MOVLW      ?lstr27_Bluetooth+0
	MOVWF      FARG_Lcd_Out_text+0
	CALL       _Lcd_Out+0
;Bluetooth.c,136 :: 		Lcd_Out(2,1,BUFFER);
	MOVLW      2
	MOVWF      FARG_Lcd_Out_row+0
	MOVLW      1
	MOVWF      FARG_Lcd_Out_column+0
	MOVLW      _BUFFER+0
	MOVWF      FARG_Lcd_Out_text+0
	CALL       _Lcd_Out+0
;Bluetooth.c,137 :: 		i=0;
	CLRF       _i+0
;Bluetooth.c,138 :: 		for(j=0;j<20;j++) BUFFER[j]='\0';
	CLRF       main_j_L0+0
L_main28:
	MOVLW      20
	SUBWF      main_j_L0+0, 0
	BTFSC      STATUS+0, 0
	GOTO       L_main29
	MOVF       main_j_L0+0, 0
	ADDLW      _BUFFER+0
	MOVWF      FSR
	CLRF       INDF+0
	INCF       main_j_L0+0, 1
	GOTO       L_main28
L_main29:
;Bluetooth.c,139 :: 		PIE1.RCIE=1;                                                     //Reabilita a gravação de mensagens no Buffer
	BSF        PIE1+0, 5
;Bluetooth.c,140 :: 		}
L_main27:
;Bluetooth.c,141 :: 		}
	GOTO       L_main24
;Bluetooth.c,144 :: 		}
L_end_main:
	GOTO       $+0
; end of _main
