
_interrupt:
	MOVWF      R15+0
	SWAPF      STATUS+0, 0
	CLRF       STATUS+0
	MOVWF      ___saveSTATUS+0
	MOVF       PCLATH+0, 0
	MOVWF      ___savePCLATH+0
	CLRF       PCLATH+0

;BluetoothMaster.c,27 :: 		void interrupt(void){
;BluetoothMaster.c,28 :: 		if(PIR1.RCIF){                                                             // Buffer de recepção cheio
	BTFSS      PIR1+0, 5
	GOTO       L_interrupt0
;BluetoothMaster.c,29 :: 		PIR1.RCIF=0;                                                            // Limpa a flag
	BCF        PIR1+0, 5
;BluetoothMaster.c,30 :: 		BUFFER[i]=uart1_read();                                                 // Lê o caracter recebido
	MOVF       _i+0, 0
	ADDLW      _BUFFER+0
	MOVWF      FLOC__interrupt+0
	CALL       _UART1_Read+0
	MOVF       FLOC__interrupt+0, 0
	MOVWF      FSR
	MOVF       R0+0, 0
	MOVWF      INDF+0
;BluetoothMaster.c,31 :: 		if (i>1){
	MOVF       _i+0, 0
	SUBLW      1
	BTFSC      STATUS+0, 0
	GOTO       L_interrupt1
;BluetoothMaster.c,32 :: 		if (BUFFER[i-1]==0x0A&&BUFFER[i]==0x0D){
	MOVLW      1
	SUBWF      _i+0, 0
	MOVWF      R0+0
	CLRF       R0+1
	BTFSS      STATUS+0, 0
	DECF       R0+1, 1
	MOVF       R0+0, 0
	ADDLW      _BUFFER+0
	MOVWF      FSR
	MOVF       INDF+0, 0
	XORLW      10
	BTFSS      STATUS+0, 2
	GOTO       L_interrupt4
	MOVF       _i+0, 0
	ADDLW      _BUFFER+0
	MOVWF      FSR
	MOVF       INDF+0, 0
	XORLW      13
	BTFSS      STATUS+0, 2
	GOTO       L_interrupt4
L__interrupt30:
;BluetoothMaster.c,33 :: 		BUFFER[i+1]='\0';                                                // Caracter null
	MOVF       _i+0, 0
	ADDLW      1
	MOVWF      R0+0
	CLRF       R0+1
	BTFSC      STATUS+0, 0
	INCF       R0+1, 1
	MOVF       R0+0, 0
	ADDLW      _BUFFER+0
	MOVWF      FSR
	CLRF       INDF+0
;BluetoothMaster.c,34 :: 		PIE1.RCIE=0;                                                     // Mensagem Recebida
	BCF        PIE1+0, 5
;BluetoothMaster.c,35 :: 		}
L_interrupt4:
;BluetoothMaster.c,36 :: 		}
L_interrupt1:
;BluetoothMaster.c,37 :: 		i++;
	INCF       _i+0, 1
;BluetoothMaster.c,38 :: 		}
L_interrupt0:
;BluetoothMaster.c,39 :: 		}
L_end_interrupt:
L__interrupt32:
	MOVF       ___savePCLATH+0, 0
	MOVWF      PCLATH+0
	SWAPF      ___saveSTATUS+0, 0
	MOVWF      STATUS+0
	SWAPF      R15+0, 1
	SWAPF      R15+0, 0
	RETFIE
; end of _interrupt

_Bluetooth_cmd:

;BluetoothMaster.c,42 :: 		void Bluetooth_cmd(const unsigned char*cmdPnt, const unsigned char*stopMsgPnt){ // Envia o comando cmd para o módulo bluetooth até ele transmitir a resposta esperada stopMsg, esta função compara somente os caracteres de stopMsg com os do BUFFER na mesma posição, assim, uma string recebida que comece com os caracteres de stopMsg mas que também possua ao final outros caracteres que não pertençam a msg também seria reconhecida resposta válida (intencionalmente)
;BluetoothMaster.c,43 :: 		unsigned char k=0;
	CLRF       Bluetooth_cmd_k_L0+0
;BluetoothMaster.c,45 :: 		while (*(cmdPnt+k)!='\0'){
L_Bluetooth_cmd5:
	MOVF       Bluetooth_cmd_k_L0+0, 0
	ADDWF      FARG_Bluetooth_cmd_cmdPnt+0, 0
	MOVWF      R0+0
	MOVF       FARG_Bluetooth_cmd_cmdPnt+1, 0
	BTFSC      STATUS+0, 0
	ADDLW      1
	MOVWF      R0+1
	MOVF       R0+0, 0
	MOVWF      ___DoICPAddr+0
	MOVF       R0+1, 0
	MOVWF      ___DoICPAddr+1
	CALL       _____DoICP+0
	MOVWF      R1+0
	MOVF       R1+0, 0
	XORLW      0
	BTFSC      STATUS+0, 2
	GOTO       L_Bluetooth_cmd6
;BluetoothMaster.c,46 :: 		cmd[k]=*(cmdPnt+k);
	MOVF       Bluetooth_cmd_k_L0+0, 0
	ADDLW      Bluetooth_cmd_cmd_L0+0
	MOVWF      R2+0
	MOVF       Bluetooth_cmd_k_L0+0, 0
	ADDWF      FARG_Bluetooth_cmd_cmdPnt+0, 0
	MOVWF      R0+0
	MOVF       FARG_Bluetooth_cmd_cmdPnt+1, 0
	BTFSC      STATUS+0, 0
	ADDLW      1
	MOVWF      R0+1
	MOVF       R0+0, 0
	MOVWF      ___DoICPAddr+0
	MOVF       R0+1, 0
	MOVWF      ___DoICPAddr+1
	CALL       _____DoICP+0
	MOVWF      R0+0
	MOVF       R2+0, 0
	MOVWF      FSR
	MOVF       R0+0, 0
	MOVWF      INDF+0
;BluetoothMaster.c,47 :: 		k++;
	INCF       Bluetooth_cmd_k_L0+0, 1
;BluetoothMaster.c,48 :: 		}
	GOTO       L_Bluetooth_cmd5
L_Bluetooth_cmd6:
;BluetoothMaster.c,49 :: 		cmd[k]='\0';
	MOVF       Bluetooth_cmd_k_L0+0, 0
	ADDLW      Bluetooth_cmd_cmd_L0+0
	MOVWF      FSR
	CLRF       INDF+0
;BluetoothMaster.c,50 :: 		k=0;
	CLRF       Bluetooth_cmd_k_L0+0
;BluetoothMaster.c,51 :: 		while (*(stopMsgPnt+k)!='\0'){
L_Bluetooth_cmd7:
	MOVF       Bluetooth_cmd_k_L0+0, 0
	ADDWF      FARG_Bluetooth_cmd_stopMsgPnt+0, 0
	MOVWF      R0+0
	MOVF       FARG_Bluetooth_cmd_stopMsgPnt+1, 0
	BTFSC      STATUS+0, 0
	ADDLW      1
	MOVWF      R0+1
	MOVF       R0+0, 0
	MOVWF      ___DoICPAddr+0
	MOVF       R0+1, 0
	MOVWF      ___DoICPAddr+1
	CALL       _____DoICP+0
	MOVWF      R1+0
	MOVF       R1+0, 0
	XORLW      0
	BTFSC      STATUS+0, 2
	GOTO       L_Bluetooth_cmd8
;BluetoothMaster.c,52 :: 		stopMsg[k]=*(stopMsgPnt+k);
	MOVF       Bluetooth_cmd_k_L0+0, 0
	ADDLW      Bluetooth_cmd_stopMsg_L0+0
	MOVWF      R2+0
	MOVF       Bluetooth_cmd_k_L0+0, 0
	ADDWF      FARG_Bluetooth_cmd_stopMsgPnt+0, 0
	MOVWF      R0+0
	MOVF       FARG_Bluetooth_cmd_stopMsgPnt+1, 0
	BTFSC      STATUS+0, 0
	ADDLW      1
	MOVWF      R0+1
	MOVF       R0+0, 0
	MOVWF      ___DoICPAddr+0
	MOVF       R0+1, 0
	MOVWF      ___DoICPAddr+1
	CALL       _____DoICP+0
	MOVWF      R0+0
	MOVF       R2+0, 0
	MOVWF      FSR
	MOVF       R0+0, 0
	MOVWF      INDF+0
;BluetoothMaster.c,53 :: 		k++;
	INCF       Bluetooth_cmd_k_L0+0, 1
;BluetoothMaster.c,54 :: 		}
	GOTO       L_Bluetooth_cmd7
L_Bluetooth_cmd8:
;BluetoothMaster.c,55 :: 		stopMsg[k]='\0';
	MOVF       Bluetooth_cmd_k_L0+0, 0
	ADDLW      Bluetooth_cmd_stopMsg_L0+0
	MOVWF      FSR
	CLRF       INDF+0
;BluetoothMaster.c,56 :: 		do{
L_Bluetooth_cmd9:
;BluetoothMaster.c,57 :: 		WRONG_MSG=0;
	BCF        _flags+0, 0
;BluetoothMaster.c,58 :: 		for(k=0;k<20;k++) BUFFER[k]='\0';
	CLRF       Bluetooth_cmd_k_L0+0
L_Bluetooth_cmd12:
	MOVLW      20
	SUBWF      Bluetooth_cmd_k_L0+0, 0
	BTFSC      STATUS+0, 0
	GOTO       L_Bluetooth_cmd13
	MOVF       Bluetooth_cmd_k_L0+0, 0
	ADDLW      _BUFFER+0
	MOVWF      FSR
	CLRF       INDF+0
	INCF       Bluetooth_cmd_k_L0+0, 1
	GOTO       L_Bluetooth_cmd12
L_Bluetooth_cmd13:
;BluetoothMaster.c,59 :: 		i=0;
	CLRF       _i+0
;BluetoothMaster.c,60 :: 		PIE1.RCIE=1;
	BSF        PIE1+0, 5
;BluetoothMaster.c,61 :: 		Uart1_write_text(cmd);
	MOVLW      Bluetooth_cmd_cmd_L0+0
	MOVWF      FARG_UART1_Write_Text_uart_text+0
	CALL       _UART1_Write_Text+0
;BluetoothMaster.c,62 :: 		Uart1_write(0x0A);
	MOVLW      10
	MOVWF      FARG_UART1_Write_data_+0
	CALL       _UART1_Write+0
;BluetoothMaster.c,63 :: 		Delay_ms(500);
	MOVLW      13
	MOVWF      R11+0
	MOVLW      175
	MOVWF      R12+0
	MOVLW      182
	MOVWF      R13+0
L_Bluetooth_cmd15:
	DECFSZ     R13+0, 1
	GOTO       L_Bluetooth_cmd15
	DECFSZ     R12+0, 1
	GOTO       L_Bluetooth_cmd15
	DECFSZ     R11+0, 1
	GOTO       L_Bluetooth_cmd15
	NOP
;BluetoothMaster.c,64 :: 		for(k=0;k<(strlen(stopMsg));k++){
	CLRF       Bluetooth_cmd_k_L0+0
L_Bluetooth_cmd16:
	MOVLW      Bluetooth_cmd_stopMsg_L0+0
	MOVWF      FARG_strlen_s+0
	CALL       _strlen+0
	MOVLW      128
	MOVWF      R2+0
	MOVLW      128
	XORWF      R0+1, 0
	SUBWF      R2+0, 0
	BTFSS      STATUS+0, 2
	GOTO       L__Bluetooth_cmd34
	MOVF       R0+0, 0
	SUBWF      Bluetooth_cmd_k_L0+0, 0
L__Bluetooth_cmd34:
	BTFSC      STATUS+0, 0
	GOTO       L_Bluetooth_cmd17
;BluetoothMaster.c,65 :: 		if (BUFFER[k]!=stopMsg[k]) WRONG_MSG=1;
	MOVF       Bluetooth_cmd_k_L0+0, 0
	ADDLW      _BUFFER+0
	MOVWF      FSR
	MOVF       INDF+0, 0
	MOVWF      R1+0
	MOVF       Bluetooth_cmd_k_L0+0, 0
	ADDLW      Bluetooth_cmd_stopMsg_L0+0
	MOVWF      FSR
	MOVF       R1+0, 0
	XORWF      INDF+0, 0
	BTFSC      STATUS+0, 2
	GOTO       L_Bluetooth_cmd19
	BSF        _flags+0, 0
L_Bluetooth_cmd19:
;BluetoothMaster.c,64 :: 		for(k=0;k<(strlen(stopMsg));k++){
	INCF       Bluetooth_cmd_k_L0+0, 1
;BluetoothMaster.c,66 :: 		}
	GOTO       L_Bluetooth_cmd16
L_Bluetooth_cmd17:
;BluetoothMaster.c,68 :: 		while(WRONG_MSG);
	BTFSC      _flags+0, 0
	GOTO       L_Bluetooth_cmd9
;BluetoothMaster.c,69 :: 		i=0;
	CLRF       _i+0
;BluetoothMaster.c,70 :: 		for(k=0;k<20;k++) BUFFER[k]='\0';
	CLRF       Bluetooth_cmd_k_L0+0
L_Bluetooth_cmd20:
	MOVLW      20
	SUBWF      Bluetooth_cmd_k_L0+0, 0
	BTFSC      STATUS+0, 0
	GOTO       L_Bluetooth_cmd21
	MOVF       Bluetooth_cmd_k_L0+0, 0
	ADDLW      _BUFFER+0
	MOVWF      FSR
	CLRF       INDF+0
	INCF       Bluetooth_cmd_k_L0+0, 1
	GOTO       L_Bluetooth_cmd20
L_Bluetooth_cmd21:
;BluetoothMaster.c,71 :: 		PIE1.RCIE=1;
	BSF        PIE1+0, 5
;BluetoothMaster.c,72 :: 		}
L_end_Bluetooth_cmd:
	RETURN
; end of _Bluetooth_cmd

_main:

;BluetoothMaster.c,76 :: 		void main() {
;BluetoothMaster.c,78 :: 		unsigned char j=0;
;BluetoothMaster.c,79 :: 		unsigned char txt[]="Initializing";
	MOVLW      73
	MOVWF      main_txt_L0+0
	MOVLW      110
	MOVWF      main_txt_L0+1
	MOVLW      105
	MOVWF      main_txt_L0+2
	MOVLW      116
	MOVWF      main_txt_L0+3
	MOVLW      105
	MOVWF      main_txt_L0+4
	MOVLW      97
	MOVWF      main_txt_L0+5
	MOVLW      108
	MOVWF      main_txt_L0+6
	MOVLW      105
	MOVWF      main_txt_L0+7
	MOVLW      122
	MOVWF      main_txt_L0+8
	MOVLW      105
	MOVWF      main_txt_L0+9
	MOVLW      110
	MOVWF      main_txt_L0+10
	MOVLW      103
	MOVWF      main_txt_L0+11
	CLRF       main_txt_L0+12
;BluetoothMaster.c,81 :: 		ADCON1=0x07;                                                                // Todas as portas são digitais
	MOVLW      7
	MOVWF      ADCON1+0
;BluetoothMaster.c,82 :: 		INTCON=0xC0;                                                                // Interrupções gerais e interrupções do periféricos habilitadas
	MOVLW      192
	MOVWF      INTCON+0
;BluetoothMaster.c,83 :: 		PIE1=0x20;                                                                  // Interrupção pela recepção serial UART habilitada
	MOVLW      32
	MOVWF      PIE1+0
;BluetoothMaster.c,84 :: 		Uart1_Init(9600);                                                           // Inicializa a UART
	MOVLW      129
	MOVWF      SPBRG+0
	BSF        TXSTA+0, 2
	CALL       _UART1_Init+0
;BluetoothMaster.c,85 :: 		Lcd_Init();                                                                 // Inicializa o display LCD
	CALL       _Lcd_Init+0
;BluetoothMaster.c,86 :: 		Lcd_cmd(_LCD_CLEAR);                                                        // Limpa o LCD
	MOVLW      1
	MOVWF      FARG_Lcd_Cmd_out_char+0
	CALL       _Lcd_Cmd+0
;BluetoothMaster.c,87 :: 		Lcd_cmd(_LCD_CURSOR_OFF);                                                   // Desliga o cursor do LCD
	MOVLW      12
	MOVWF      FARG_Lcd_Cmd_out_char+0
	CALL       _Lcd_Cmd+0
;BluetoothMaster.c,90 :: 		Lcd_Out(1,1,txt);                                                           // Contagem regressiva que mostra o andamento das configurações
	MOVLW      1
	MOVWF      FARG_Lcd_Out_row+0
	MOVLW      1
	MOVWF      FARG_Lcd_Out_column+0
	MOVLW      main_txt_L0+0
	MOVWF      FARG_Lcd_Out_text+0
	CALL       _Lcd_Out+0
;BluetoothMaster.c,91 :: 		delay_ms(100);
	MOVLW      3
	MOVWF      R11+0
	MOVLW      138
	MOVWF      R12+0
	MOVLW      85
	MOVWF      R13+0
L_main23:
	DECFSZ     R13+0, 1
	GOTO       L_main23
	DECFSZ     R12+0, 1
	GOTO       L_main23
	DECFSZ     R11+0, 1
	GOTO       L_main23
	NOP
	NOP
;BluetoothMaster.c,92 :: 		Bluetooth_cmd("AT+ROLE1","OK+Set:1");                                       // Modo Master
	MOVLW      ?lstr_1_BluetoothMaster+0
	MOVWF      FARG_Bluetooth_cmd_cmdPnt+0
	MOVLW      hi_addr(?lstr_1_BluetoothMaster+0)
	MOVWF      FARG_Bluetooth_cmd_cmdPnt+1
	MOVLW      ?lstr_2_BluetoothMaster+0
	MOVWF      FARG_Bluetooth_cmd_stopMsgPnt+0
	MOVLW      hi_addr(?lstr_2_BluetoothMaster+0)
	MOVWF      FARG_Bluetooth_cmd_stopMsgPnt+1
	CALL       _Bluetooth_cmd+0
;BluetoothMaster.c,93 :: 		Bluetooth_cmd("AT+RESET","OK+RESET");                                       // Reseta o módulo
	MOVLW      ?lstr_3_BluetoothMaster+0
	MOVWF      FARG_Bluetooth_cmd_cmdPnt+0
	MOVLW      hi_addr(?lstr_3_BluetoothMaster+0)
	MOVWF      FARG_Bluetooth_cmd_cmdPnt+1
	MOVLW      ?lstr_4_BluetoothMaster+0
	MOVWF      FARG_Bluetooth_cmd_stopMsgPnt+0
	MOVLW      hi_addr(?lstr_4_BluetoothMaster+0)
	MOVWF      FARG_Bluetooth_cmd_stopMsgPnt+1
	CALL       _Bluetooth_cmd+0
;BluetoothMaster.c,94 :: 		delay_ms(2000);
	MOVLW      51
	MOVWF      R11+0
	MOVLW      187
	MOVWF      R12+0
	MOVLW      223
	MOVWF      R13+0
L_main24:
	DECFSZ     R13+0, 1
	GOTO       L_main24
	DECFSZ     R12+0, 1
	GOTO       L_main24
	DECFSZ     R11+0, 1
	GOTO       L_main24
	NOP
	NOP
;BluetoothMaster.c,95 :: 		Bluetooth_cmd("AT+DROP","");                                                // Derruba possível conecção
	MOVLW      ?lstr_5_BluetoothMaster+0
	MOVWF      FARG_Bluetooth_cmd_cmdPnt+0
	MOVLW      hi_addr(?lstr_5_BluetoothMaster+0)
	MOVWF      FARG_Bluetooth_cmd_cmdPnt+1
	MOVLW      ?lstr_6_BluetoothMaster+0
	MOVWF      FARG_Bluetooth_cmd_stopMsgPnt+0
	MOVLW      hi_addr(?lstr_6_BluetoothMaster+0)
	MOVWF      FARG_Bluetooth_cmd_stopMsgPnt+1
	CALL       _Bluetooth_cmd+0
;BluetoothMaster.c,96 :: 		Bluetooth_cmd("AT+SAVE0","OK+Set:0");                                       // Não tenta reconectar ao ultimo dispositivo conectado
	MOVLW      ?lstr_7_BluetoothMaster+0
	MOVWF      FARG_Bluetooth_cmd_cmdPnt+0
	MOVLW      hi_addr(?lstr_7_BluetoothMaster+0)
	MOVWF      FARG_Bluetooth_cmd_cmdPnt+1
	MOVLW      ?lstr_8_BluetoothMaster+0
	MOVWF      FARG_Bluetooth_cmd_stopMsgPnt+0
	MOVLW      hi_addr(?lstr_8_BluetoothMaster+0)
	MOVWF      FARG_Bluetooth_cmd_stopMsgPnt+1
	CALL       _Bluetooth_cmd+0
;BluetoothMaster.c,97 :: 		Bluetooth_cmd("AT+BAUD2","OK+Set:2");                                       // Baud rate 9600
	MOVLW      ?lstr_9_BluetoothMaster+0
	MOVWF      FARG_Bluetooth_cmd_cmdPnt+0
	MOVLW      hi_addr(?lstr_9_BluetoothMaster+0)
	MOVWF      FARG_Bluetooth_cmd_cmdPnt+1
	MOVLW      ?lstr_10_BluetoothMaster+0
	MOVWF      FARG_Bluetooth_cmd_stopMsgPnt+0
	MOVLW      hi_addr(?lstr_10_BluetoothMaster+0)
	MOVWF      FARG_Bluetooth_cmd_stopMsgPnt+1
	CALL       _Bluetooth_cmd+0
;BluetoothMaster.c,98 :: 		Bluetooth_cmd("AT+PARI0","OK+Set:0");                                       // Nenhum bit de paridade
	MOVLW      ?lstr_11_BluetoothMaster+0
	MOVWF      FARG_Bluetooth_cmd_cmdPnt+0
	MOVLW      hi_addr(?lstr_11_BluetoothMaster+0)
	MOVWF      FARG_Bluetooth_cmd_cmdPnt+1
	MOVLW      ?lstr_12_BluetoothMaster+0
	MOVWF      FARG_Bluetooth_cmd_stopMsgPnt+0
	MOVLW      hi_addr(?lstr_12_BluetoothMaster+0)
	MOVWF      FARG_Bluetooth_cmd_stopMsgPnt+1
	CALL       _Bluetooth_cmd+0
;BluetoothMaster.c,99 :: 		Bluetooth_cmd("AT+STOP0","OK+Set:0");                                       // Um stop Bit
	MOVLW      ?lstr_13_BluetoothMaster+0
	MOVWF      FARG_Bluetooth_cmd_cmdPnt+0
	MOVLW      hi_addr(?lstr_13_BluetoothMaster+0)
	MOVWF      FARG_Bluetooth_cmd_cmdPnt+1
	MOVLW      ?lstr_14_BluetoothMaster+0
	MOVWF      FARG_Bluetooth_cmd_stopMsgPnt+0
	MOVLW      hi_addr(?lstr_14_BluetoothMaster+0)
	MOVWF      FARG_Bluetooth_cmd_stopMsgPnt+1
	CALL       _Bluetooth_cmd+0
;BluetoothMaster.c,100 :: 		Bluetooth_cmd("AT+DELI3","OK+Set:3");                                       // Delimitador de campo de resposta 0x0A 0x0D
	MOVLW      ?lstr_15_BluetoothMaster+0
	MOVWF      FARG_Bluetooth_cmd_cmdPnt+0
	MOVLW      hi_addr(?lstr_15_BluetoothMaster+0)
	MOVWF      FARG_Bluetooth_cmd_cmdPnt+1
	MOVLW      ?lstr_16_BluetoothMaster+0
	MOVWF      FARG_Bluetooth_cmd_stopMsgPnt+0
	MOVLW      hi_addr(?lstr_16_BluetoothMaster+0)
	MOVWF      FARG_Bluetooth_cmd_stopMsgPnt+1
	CALL       _Bluetooth_cmd+0
;BluetoothMaster.c,101 :: 		Bluetooth_cmd("AT+NOTI1","OK+Set:1");                                       // Ativa notificação de conexão e desconexão via bluetooth
	MOVLW      ?lstr_17_BluetoothMaster+0
	MOVWF      FARG_Bluetooth_cmd_cmdPnt+0
	MOVLW      hi_addr(?lstr_17_BluetoothMaster+0)
	MOVWF      FARG_Bluetooth_cmd_cmdPnt+1
	MOVLW      ?lstr_18_BluetoothMaster+0
	MOVWF      FARG_Bluetooth_cmd_stopMsgPnt+0
	MOVLW      hi_addr(?lstr_18_BluetoothMaster+0)
	MOVWF      FARG_Bluetooth_cmd_stopMsgPnt+1
	CALL       _Bluetooth_cmd+0
;BluetoothMaster.c,102 :: 		Bluetooth_cmd("AT+MODE1","OK+Set:1");                                       // Modo de aquisição
	MOVLW      ?lstr_19_BluetoothMaster+0
	MOVWF      FARG_Bluetooth_cmd_cmdPnt+0
	MOVLW      hi_addr(?lstr_19_BluetoothMaster+0)
	MOVWF      FARG_Bluetooth_cmd_cmdPnt+1
	MOVLW      ?lstr_20_BluetoothMaster+0
	MOVWF      FARG_Bluetooth_cmd_stopMsgPnt+0
	MOVLW      hi_addr(?lstr_20_BluetoothMaster+0)
	MOVWF      FARG_Bluetooth_cmd_stopMsgPnt+1
	CALL       _Bluetooth_cmd+0
;BluetoothMaster.c,103 :: 		Bluetooth_cmd("AT+ROLE1","OK+Set:1");                                       // Modo Master
	MOVLW      ?lstr_21_BluetoothMaster+0
	MOVWF      FARG_Bluetooth_cmd_cmdPnt+0
	MOVLW      hi_addr(?lstr_21_BluetoothMaster+0)
	MOVWF      FARG_Bluetooth_cmd_cmdPnt+1
	MOVLW      ?lstr_22_BluetoothMaster+0
	MOVWF      FARG_Bluetooth_cmd_stopMsgPnt+0
	MOVLW      hi_addr(?lstr_22_BluetoothMaster+0)
	MOVWF      FARG_Bluetooth_cmd_stopMsgPnt+1
	CALL       _Bluetooth_cmd+0
;BluetoothMaster.c,104 :: 		Bluetooth_cmd("AT+TYPE1","OK+Set:1");                                       // Ativa o pin
	MOVLW      ?lstr_23_BluetoothMaster+0
	MOVWF      FARG_Bluetooth_cmd_cmdPnt+0
	MOVLW      hi_addr(?lstr_23_BluetoothMaster+0)
	MOVWF      FARG_Bluetooth_cmd_cmdPnt+1
	MOVLW      ?lstr_24_BluetoothMaster+0
	MOVWF      FARG_Bluetooth_cmd_stopMsgPnt+0
	MOVLW      hi_addr(?lstr_24_BluetoothMaster+0)
	MOVWF      FARG_Bluetooth_cmd_stopMsgPnt+1
	CALL       _Bluetooth_cmd+0
;BluetoothMaster.c,105 :: 		Bluetooth_cmd("AT+PIN184620","OK+Set:184620");                              // Define Pin para conectar ao módulo bluetooth
	MOVLW      ?lstr_25_BluetoothMaster+0
	MOVWF      FARG_Bluetooth_cmd_cmdPnt+0
	MOVLW      hi_addr(?lstr_25_BluetoothMaster+0)
	MOVWF      FARG_Bluetooth_cmd_cmdPnt+1
	MOVLW      ?lstr_26_BluetoothMaster+0
	MOVWF      FARG_Bluetooth_cmd_stopMsgPnt+0
	MOVLW      hi_addr(?lstr_26_BluetoothMaster+0)
	MOVWF      FARG_Bluetooth_cmd_stopMsgPnt+1
	CALL       _Bluetooth_cmd+0
;BluetoothMaster.c,106 :: 		Bluetooth_cmd("AT+IMME1","OK+Set:1");                                       // Quando o módulo é alimentado começa a funcionar imediatamente
	MOVLW      ?lstr_27_BluetoothMaster+0
	MOVWF      FARG_Bluetooth_cmd_cmdPnt+0
	MOVLW      hi_addr(?lstr_27_BluetoothMaster+0)
	MOVWF      FARG_Bluetooth_cmd_cmdPnt+1
	MOVLW      ?lstr_28_BluetoothMaster+0
	MOVWF      FARG_Bluetooth_cmd_stopMsgPnt+0
	MOVLW      hi_addr(?lstr_28_BluetoothMaster+0)
	MOVWF      FARG_Bluetooth_cmd_stopMsgPnt+1
	CALL       _Bluetooth_cmd+0
;BluetoothMaster.c,107 :: 		Bluetooth_cmd("AT+ALLO0","OK+Set:0");                                       // Lista de endereços permitidos (whitelist) desativada
	MOVLW      ?lstr_29_BluetoothMaster+0
	MOVWF      FARG_Bluetooth_cmd_cmdPnt+0
	MOVLW      hi_addr(?lstr_29_BluetoothMaster+0)
	MOVWF      FARG_Bluetooth_cmd_cmdPnt+1
	MOVLW      ?lstr_30_BluetoothMaster+0
	MOVWF      FARG_Bluetooth_cmd_stopMsgPnt+0
	MOVLW      hi_addr(?lstr_30_BluetoothMaster+0)
	MOVWF      FARG_Bluetooth_cmd_stopMsgPnt+1
	CALL       _Bluetooth_cmd+0
;BluetoothMaster.c,108 :: 		Bluetooth_cmd("AT+SCAN9","OK+Set:9");                                       // A busca ficara ativa por 9s
	MOVLW      ?lstr_31_BluetoothMaster+0
	MOVWF      FARG_Bluetooth_cmd_cmdPnt+0
	MOVLW      hi_addr(?lstr_31_BluetoothMaster+0)
	MOVWF      FARG_Bluetooth_cmd_cmdPnt+1
	MOVLW      ?lstr_32_BluetoothMaster+0
	MOVWF      FARG_Bluetooth_cmd_stopMsgPnt+0
	MOVLW      hi_addr(?lstr_32_BluetoothMaster+0)
	MOVWF      FARG_Bluetooth_cmd_stopMsgPnt+1
	CALL       _Bluetooth_cmd+0
;BluetoothMaster.c,109 :: 		Bluetooth_cmd("AT+SHOW0","OK+Set:0");                                       // Não mostrar informação adicional do discovey
	MOVLW      ?lstr_33_BluetoothMaster+0
	MOVWF      FARG_Bluetooth_cmd_cmdPnt+0
	MOVLW      hi_addr(?lstr_33_BluetoothMaster+0)
	MOVWF      FARG_Bluetooth_cmd_cmdPnt+1
	MOVLW      ?lstr_34_BluetoothMaster+0
	MOVWF      FARG_Bluetooth_cmd_stopMsgPnt+0
	MOVLW      hi_addr(?lstr_34_BluetoothMaster+0)
	MOVWF      FARG_Bluetooth_cmd_stopMsgPnt+1
	CALL       _Bluetooth_cmd+0
;BluetoothMaster.c,110 :: 		Bluetooth_cmd("AT+RESET","OK+RESET");                                       // Reseta o módulo
	MOVLW      ?lstr_35_BluetoothMaster+0
	MOVWF      FARG_Bluetooth_cmd_cmdPnt+0
	MOVLW      hi_addr(?lstr_35_BluetoothMaster+0)
	MOVWF      FARG_Bluetooth_cmd_cmdPnt+1
	MOVLW      ?lstr_36_BluetoothMaster+0
	MOVWF      FARG_Bluetooth_cmd_stopMsgPnt+0
	MOVLW      hi_addr(?lstr_36_BluetoothMaster+0)
	MOVWF      FARG_Bluetooth_cmd_stopMsgPnt+1
	CALL       _Bluetooth_cmd+0
;BluetoothMaster.c,111 :: 		Lcd_cmd(_LCD_CLEAR);
	MOVLW      1
	MOVWF      FARG_Lcd_Cmd_out_char+0
	CALL       _Lcd_Cmd+0
;BluetoothMaster.c,112 :: 		Lcd_Out(1,1,"Searching...");
	MOVLW      1
	MOVWF      FARG_Lcd_Out_row+0
	MOVLW      1
	MOVWF      FARG_Lcd_Out_column+0
	MOVLW      ?lstr37_BluetoothMaster+0
	MOVWF      FARG_Lcd_Out_text+0
	CALL       _Lcd_Out+0
;BluetoothMaster.c,113 :: 		Bluetooth_cmd("AT+DISC?","OK+DISCS");                                       // Executa o discovery
	MOVLW      ?lstr_38_BluetoothMaster+0
	MOVWF      FARG_Bluetooth_cmd_cmdPnt+0
	MOVLW      hi_addr(?lstr_38_BluetoothMaster+0)
	MOVWF      FARG_Bluetooth_cmd_cmdPnt+1
	MOVLW      ?lstr_39_BluetoothMaster+0
	MOVWF      FARG_Bluetooth_cmd_stopMsgPnt+0
	MOVLW      hi_addr(?lstr_39_BluetoothMaster+0)
	MOVWF      FARG_Bluetooth_cmd_stopMsgPnt+1
	CALL       _Bluetooth_cmd+0
;BluetoothMaster.c,114 :: 		delay_ms(9000);
	MOVLW      229
	MOVWF      R11+0
	MOVLW      73
	MOVWF      R12+0
	MOVLW      245
	MOVWF      R13+0
L_main25:
	DECFSZ     R13+0, 1
	GOTO       L_main25
	DECFSZ     R12+0, 1
	GOTO       L_main25
	DECFSZ     R11+0, 1
	GOTO       L_main25
;BluetoothMaster.c,115 :: 		Bluetooth_cmd("","OK+DISCE");
	MOVLW      ?lstr_40_BluetoothMaster+0
	MOVWF      FARG_Bluetooth_cmd_cmdPnt+0
	MOVLW      hi_addr(?lstr_40_BluetoothMaster+0)
	MOVWF      FARG_Bluetooth_cmd_cmdPnt+1
	MOVLW      ?lstr_41_BluetoothMaster+0
	MOVWF      FARG_Bluetooth_cmd_stopMsgPnt+0
	MOVLW      hi_addr(?lstr_41_BluetoothMaster+0)
	MOVWF      FARG_Bluetooth_cmd_stopMsgPnt+1
	CALL       _Bluetooth_cmd+0
;BluetoothMaster.c,117 :: 		Lcd_cmd(_LCD_CLEAR);
	MOVLW      1
	MOVWF      FARG_Lcd_Cmd_out_char+0
	CALL       _Lcd_Cmd+0
;BluetoothMaster.c,118 :: 		Lcd_Out(1,1,"Waiting for");
	MOVLW      1
	MOVWF      FARG_Lcd_Out_row+0
	MOVLW      1
	MOVWF      FARG_Lcd_Out_column+0
	MOVLW      ?lstr42_BluetoothMaster+0
	MOVWF      FARG_Lcd_Out_text+0
	CALL       _Lcd_Out+0
;BluetoothMaster.c,119 :: 		Lcd_Out(2,1,"Connection");
	MOVLW      2
	MOVWF      FARG_Lcd_Out_row+0
	MOVLW      1
	MOVWF      FARG_Lcd_Out_column+0
	MOVLW      ?lstr43_BluetoothMaster+0
	MOVWF      FARG_Lcd_Out_text+0
	CALL       _Lcd_Out+0
;BluetoothMaster.c,120 :: 		Bluetooth_cmd("AT+CONN0","OK+CONN");
	MOVLW      ?lstr_44_BluetoothMaster+0
	MOVWF      FARG_Bluetooth_cmd_cmdPnt+0
	MOVLW      hi_addr(?lstr_44_BluetoothMaster+0)
	MOVWF      FARG_Bluetooth_cmd_cmdPnt+1
	MOVLW      ?lstr_45_BluetoothMaster+0
	MOVWF      FARG_Bluetooth_cmd_stopMsgPnt+0
	MOVLW      hi_addr(?lstr_45_BluetoothMaster+0)
	MOVWF      FARG_Bluetooth_cmd_stopMsgPnt+1
	CALL       _Bluetooth_cmd+0
;BluetoothMaster.c,121 :: 		Lcd_cmd(_LCD_CLEAR);
	MOVLW      1
	MOVWF      FARG_Lcd_Cmd_out_char+0
	CALL       _Lcd_Cmd+0
;BluetoothMaster.c,123 :: 		for(;;){
L_main26:
;BluetoothMaster.c,124 :: 		uart1_write_text("Hello world");
	MOVLW      ?lstr46_BluetoothMaster+0
	MOVWF      FARG_UART1_Write_Text_uart_text+0
	CALL       _UART1_Write_Text+0
;BluetoothMaster.c,125 :: 		uart1_write(0x0D);
	MOVLW      13
	MOVWF      FARG_UART1_Write_data_+0
	CALL       _UART1_Write+0
;BluetoothMaster.c,126 :: 		uart1_write(0x0A);
	MOVLW      10
	MOVWF      FARG_UART1_Write_data_+0
	CALL       _UART1_Write+0
;BluetoothMaster.c,127 :: 		Lcd_Out(1,1,"Hello world");
	MOVLW      1
	MOVWF      FARG_Lcd_Out_row+0
	MOVLW      1
	MOVWF      FARG_Lcd_Out_column+0
	MOVLW      ?lstr47_BluetoothMaster+0
	MOVWF      FARG_Lcd_Out_text+0
	CALL       _Lcd_Out+0
;BluetoothMaster.c,128 :: 		delay_ms(1000);
	MOVLW      26
	MOVWF      R11+0
	MOVLW      94
	MOVWF      R12+0
	MOVLW      110
	MOVWF      R13+0
L_main29:
	DECFSZ     R13+0, 1
	GOTO       L_main29
	DECFSZ     R12+0, 1
	GOTO       L_main29
	DECFSZ     R11+0, 1
	GOTO       L_main29
	NOP
;BluetoothMaster.c,129 :: 		Lcd_cmd(_LCD_CLEAR);
	MOVLW      1
	MOVWF      FARG_Lcd_Cmd_out_char+0
	CALL       _Lcd_Cmd+0
;BluetoothMaster.c,131 :: 		}
	GOTO       L_main26
;BluetoothMaster.c,134 :: 		}
L_end_main:
	GOTO       $+0
; end of _main
